; Function Attrs: mustprogress uwtable
define noundef double @_ZNK8QuantLib24YoYInflationCouponPricer11swapletRateEv(ptr noundef nonnull align 8 dereferenceable(80) %this) unnamed_addr #8 align 2 {
entry:
  %gearing_ = getelementptr inbounds nuw i8, ptr %this, i64 56
  %0 = load double, ptr %gearing_, align 8, !tbaa !79
  %vtable = load ptr, ptr %this, align 8, !tbaa !35
  %vfn = getelementptr inbounds i8, ptr %vtable, i64 128
  %1 = load ptr, ptr %vfn, align 8
  %call2 = tail call noundef double %1(ptr noundef nonnull align 8 dereferenceable(80) %this, double noundef 0x47EFFFFFE0000000)
  %spread_ = getelementptr inbounds nuw i8, ptr %this, i64 64
  %2 = load double, ptr %spread_, align 8, !tbaa !118
  %3 = tail call double @llvm.fmuladd.f64(double %0, double %call2, double %2)
  ret double %3
}